target datalayout = "e-m:e-p270:32:32-p271:32:32-p272:64:64-i64:64-i128:128-f80:128-n8:16:32:64-S128"
target triple = "x86_64-unknown-linux-gnu"

%"struct.msdfgen::Vector2" = type { double, double }
%"class.msdfgen::MSDFErrorCorrection" = type { %"struct.msdfgen::BitmapRef", %"class.msdfgen::Projection", double, double, double }
%"struct.msdfgen::BitmapRef" = type { ptr, i32, i32 }
%"class.msdfgen::Projection" = type { %"struct.msdfgen::Vector2", %"struct.msdfgen::Vector2" }

; Function Attrs: mustprogress nounwind uwtable
define dso_local void @_ZN7msdfgen19MSDFErrorCorrection10protectAllEv(ptr noundef nonnull align 8 dereferenceable(72) %this) #2 align 2 {
entry:
  %this.addr = alloca ptr, align 8
  %end = alloca ptr, align 8
  %mask = alloca ptr, align 8
  store ptr %this, ptr %this.addr, align 8
  %this1 = load ptr, ptr %this.addr, align 8
  %stencil = getelementptr inbounds %"class.msdfgen::MSDFErrorCorrection", ptr %this1, i32 0, i32 0
  %pixels = getelementptr inbounds %"struct.msdfgen::BitmapRef", ptr %stencil, i32 0, i32 0
  %0 = load ptr, ptr %pixels, align 8
  %stencil2 = getelementptr inbounds %"class.msdfgen::MSDFErrorCorrection", ptr %this1, i32 0, i32 0
  %width = getelementptr inbounds %"struct.msdfgen::BitmapRef", ptr %stencil2, i32 0, i32 1
  %1 = load i32, ptr %width, align 8
  %stencil3 = getelementptr inbounds %"class.msdfgen::MSDFErrorCorrection", ptr %this1, i32 0, i32 0
  %height = getelementptr inbounds %"struct.msdfgen::BitmapRef", ptr %stencil3, i32 0, i32 2
  %2 = load i32, ptr %height, align 4
  %mul = mul nsw i32 %1, %2
  %idx.ext = sext i32 %mul to i64
  %add.ptr = getelementptr inbounds i8, ptr %0, i64 %idx.ext
  store ptr %add.ptr, ptr %end, align 8
  %stencil4 = getelementptr inbounds %"class.msdfgen::MSDFErrorCorrection", ptr %this1, i32 0, i32 0
  %pixels5 = getelementptr inbounds %"struct.msdfgen::BitmapRef", ptr %stencil4, i32 0, i32 0
  %3 = load ptr, ptr %pixels5, align 8
  store ptr %3, ptr %mask, align 8
  br label %for.cond

for.cond:                                         ; preds = %for.inc, %entry
  %4 = load ptr, ptr %mask, align 8
  %5 = load ptr, ptr %end, align 8
  %cmp = icmp ult ptr %4, %5
  br i1 %cmp, label %for.body, label %for.end

for.body:                                         ; preds = %for.cond
  %6 = load ptr, ptr %mask, align 8
  %7 = load i8, ptr %6, align 1
  %conv = zext i8 %7 to i32
  %or = or i32 %conv, 2
  %conv6 = trunc i32 %or to i8
  store i8 %conv6, ptr %6, align 1
  br label %for.inc

for.inc:                                          ; preds = %for.body
  %8 = load ptr, ptr %mask, align 8
  %incdec.ptr = getelementptr inbounds i8, ptr %8, i32 1
  store ptr %incdec.ptr, ptr %mask, align 8
  br label %for.cond, !llvm.loop !34

for.end:                                          ; preds = %for.cond
  ret void
}