; Function Attrs: mustprogress nofree norecurse nosync nounwind memory(readwrite, inaccessiblemem: none) uwtable
define dso_local void @_ZN7msdfgen19MSDFErrorCorrection10protectAllEv(ptr noundef nonnull readonly align 8 captures(none) dereferenceable(72) %this) local_unnamed_addr #9 align 2 {
entry:
  %0 = load ptr, ptr %this, align 8
  %width = getelementptr inbounds nuw i8, ptr %this, i64 8
  %1 = load i32, ptr %width, align 8
  %height = getelementptr inbounds nuw i8, ptr %this, i64 12
  %2 = load i32, ptr %height, align 4
  %mul = mul nsw i32 %2, %1
  %idx.ext = sext i32 %mul to i64
  %add.ptr = getelementptr inbounds i8, ptr %0, i64 %idx.ext
  %cmp3 = icmp sgt i32 %mul, 0
  br i1 %cmp3, label %for.body, label %for.end

for.body:                                         ; preds = %entry, %for.body
  %mask.04 = phi ptr [ %incdec.ptr, %for.body ], [ %0, %entry ]
  %3 = load i8, ptr %mask.04, align 1
  %4 = or i8 %3, 2
  store i8 %4, ptr %mask.04, align 1
  %incdec.ptr = getelementptr inbounds nuw i8, ptr %mask.04, i64 1
  %cmp = icmp ult ptr %incdec.ptr, %add.ptr
  br i1 %cmp, label %for.body, label %for.end, !llvm.loop !131

for.end:                                          ; preds = %for.body, %entry
  ret void
}